Certificate:
    Data:
        Version: 3 (0x2)
        Serial Number:
            e9:c5:89:41:6e:f1:16:98:9d:8d:fa:e8:f5:48:1c:d4
        Signature Algorithm: sha256WithRSAEncryption
        Issuer: CN=Easy-RSA CA
        Validity
            Not Before: Aug  7 00:03:23 2024 GMT
            Not After : Nov 10 00:03:23 2026 GMT
        Subject: CN=rz5qnG4XD9CjxmhAMYNlXjDZyXVsE70l
        Subject Public Key Info:
            Public Key Algorithm: rsaEncryption
                RSA Public-Key: (2048 bit)
                Modulus:
                    00:b8:00:ec:53:85:d1:13:5b:11:f9:fd:a1:19:c5:
                    28:30:54:09:4f:22:2f:c5:c3:53:81:e1:9d:7b:8e:
                    04:59:84:f4:a7:a5:97:b6:b7:81:05:6e:bb:73:64:
                    0e:74:9e:9b:07:16:5f:56:14:60:ff:91:7c:63:0d:
                    d5:af:6f:34:77:66:a3:21:52:bd:2e:09:ea:59:72:
                    aa:37:a8:7f:ac:67:bc:a4:91:96:41:88:2f:73:80:
                    c0:cc:37:fe:fe:a0:31:bc:29:ec:59:ba:8a:db:b8:
                    71:3f:bb:a0:23:c1:d7:2a:44:64:e0:05:44:39:90:
                    c2:14:fc:9d:70:e7:df:97:45:74:62:29:20:f2:93:
                    2a:5d:a0:59:87:4d:0f:63:94:f7:a0:f1:02:f2:20:
                    6f:52:9a:48:91:9c:2c:0a:c4:bb:b2:4b:03:42:60:
                    a1:14:80:2f:34:50:95:cd:7a:3c:a4:5f:7b:46:0f:
                    3b:19:c9:13:a3:32:1e:67:ed:99:96:3d:0f:94:b9:
                    f2:0c:d0:40:e5:88:f7:64:af:c2:cf:e1:03:e6:ee:
                    1f:85:4f:34:ee:7c:32:75:d8:2b:d8:5c:21:e8:6d:
                    20:41:06:0e:02:11:a4:13:fd:89:f7:78:f2:02:af:
                    2b:0b:c7:00:dd:53:f9:e7:32:13:df:ef:8b:f0:03:
                    2c:31
                Exponent: 65537 (0x10001)
        X509v3 extensions:
            X509v3 Basic Constraints: 
                CA:FALSE
            X509v3 Subject Key Identifier: 
                11:D7:71:E7:96:9D:A1:B7:C6:0C:10:66:B0:37:7D:64:C5:E6:AD:E3
            X509v3 Authority Key Identifier: 
                keyid:BD:26:3F:32:D1:52:CD:9A:A7:71:31:60:87:52:EE:3D:3F:67:5D:56
                DirName:/CN=Easy-RSA CA
                serial:7B:3F:EF:53:E6:EF:2A:57:F4:D9:0F:1D:CD:AE:AC:6C:80:2C:73:D7

            X509v3 Extended Key Usage: 
                TLS Web Client Authentication
            X509v3 Key Usage: 
                Digital Signature
    Signature Algorithm: sha256WithRSAEncryption
         75:ca:82:22:09:51:c4:fb:37:7f:7a:ca:b2:cf:63:4b:78:a8:
         57:b9:c3:97:ef:83:ee:0a:96:fb:67:39:84:20:19:7c:f2:eb:
         d5:39:68:5f:85:49:2e:52:9f:98:a4:a3:b1:07:6c:5a:81:bd:
         42:ef:72:ac:44:c8:c8:56:26:1c:9e:25:f4:d2:ad:55:3a:84:
         1d:ed:8c:21:30:d6:a7:c0:da:a5:7c:67:c2:f0:16:51:50:53:
         c0:39:fa:b5:59:36:a0:9f:43:15:8d:75:a8:ae:96:23:71:56:
         37:9f:dd:8b:e5:03:c6:5b:d5:6b:1d:ea:15:f6:fa:c3:b9:29:
         70:f3:cd:db:62:9e:12:86:ad:54:18:91:93:35:ab:69:b6:e9:
         9f:69:da:9b:32:f0:66:7c:38:0b:6d:4d:75:9e:b1:c1:d8:9e:
         ff:bd:42:67:9e:c4:c1:a7:e7:e7:64:63:90:2f:12:e0:fb:72:
         1d:44:a0:f7:fe:d6:30:eb:39:b1:e2:05:81:f6:05:ff:e0:69:
         14:fc:f6:44:33:08:e3:de:04:6c:ae:f4:a5:2a:58:0a:63:61:
         f6:05:07:f5:7a:95:f5:de:4f:f2:5e:0e:2a:1f:46:df:cb:44:
         26:a5:83:48:e3:e1:01:eb:83:b2:04:a9:53:cd:57:a0:e7:57:
         c4:a2:eb:60
-----BEGIN CERTIFICATE-----
MIIDbzCCAlegAwIBAgIRAOnFiUFu8RaYnY366PVIHNQwDQYJKoZIhvcNAQELBQAw
FjEUMBIGA1UEAwwLRWFzeS1SU0EgQ0EwHhcNMjQwODA3MDAwMzIzWhcNMjYxMTEw
MDAwMzIzWjArMSkwJwYDVQQDDCByejVxbkc0WEQ5Q2p4bWhBTVlObFhqRFp5WFZz
RTcwbDCCASIwDQYJKoZIhvcNAQEBBQADggEPADCCAQoCggEBALgA7FOF0RNbEfn9
oRnFKDBUCU8iL8XDU4HhnXuOBFmE9Kell7a3gQVuu3NkDnSemwcWX1YUYP+RfGMN
1a9vNHdmoyFSvS4J6llyqjeof6xnvKSRlkGIL3OAwMw3/v6gMbwp7Fm6itu4cT+7
oCPB1ypEZOAFRDmQwhT8nXDn35dFdGIpIPKTKl2gWYdND2OU96DxAvIgb1KaSJGc
LArEu7JLA0JgoRSALzRQlc16PKRfe0YPOxnJE6MyHmftmZY9D5S58gzQQOWI92Sv
ws/hA+buH4VPNO58MnXYK9hcIehtIEEGDgIRpBP9ifd48gKvKwvHAN1T+ecyE9/v
i/ADLDECAwEAAaOBojCBnzAJBgNVHRMEAjAAMB0GA1UdDgQWBBQR13Hnlp2ht8YM
EGawN31kxeat4zBRBgNVHSMESjBIgBS9Jj8y0VLNmqdxMWCHUu49P2ddVqEapBgw
FjEUMBIGA1UEAwwLRWFzeS1SU0EgQ0GCFHs/71Pm7ypX9NkPHc2urGyALHPXMBMG
A1UdJQQMMAoGCCsGAQUFBwMCMAsGA1UdDwQEAwIHgDANBgkqhkiG9w0BAQsFAAOC
AQEAdcqCIglRxPs3f3rKss9jS3ioV7nDl++D7gqW+2c5hCAZfPLr1TloX4VJLlKf
mKSjsQdsWoG9Qu9yrETIyFYmHJ4l9NKtVTqEHe2MITDWp8DapXxnwvAWUVBTwDn6
tVk2oJ9DFY11qK6WI3FWN5/di+UDxlvVax3qFfb6w7kpcPPN22KeEoatVBiRkzWr
abbpn2namzLwZnw4C21NdZ6xwdie/71CZ57Ewafn52RjkC8S4PtyHUSg9/7WMOs5
seIFgfYF/+BpFPz2RDMI494EbK70pSpYCmNh9gUH9XqV9d5P8l4OKh9G38tEJqWD
SOPhAeuDsgSpU81XoOdXxKLrYA==
-----END CERTIFICATE-----
