Certificate:
    Data:
        Version: 3 (0x2)
        Serial Number:
            3b:99:aa:22:7a:ae:59:47:84:c9:be:01:b4:40:6e:18
        Signature Algorithm: sha256WithRSAEncryption
        Issuer: CN=Easy-RSA CA
        Validity
            Not Before: Aug  7 00:03:23 2024 GMT
            Not After : Nov 10 00:03:23 2026 GMT
        Subject: CN=zeN8vBUm4Mny6QtGOg33hzbK4mrevGl4
        Subject Public Key Info:
            Public Key Algorithm: rsaEncryption
                RSA Public-Key: (2048 bit)
                Modulus:
                    00:b0:0c:b0:bb:0d:a8:76:86:64:f6:14:97:19:a2:
                    9a:18:eb:a8:59:65:78:49:c1:7a:6a:67:4a:88:3e:
                    91:31:64:c3:33:4c:51:21:6c:4f:8d:fe:3c:81:20:
                    30:e6:c0:25:e7:19:71:69:8a:25:5d:92:fa:73:f3:
                    0f:f5:20:74:98:31:87:d0:be:d6:9e:2d:29:a3:5d:
                    54:bb:a9:ee:68:48:e7:be:b9:95:a3:3c:a4:24:e5:
                    fa:83:56:ae:b5:7b:5c:dc:8c:23:fe:34:12:f8:bf:
                    f7:fb:26:3b:7e:5d:a0:bc:7b:e9:09:25:88:a6:21:
                    95:f9:70:d3:dc:87:c5:6a:0a:67:b6:f1:39:d1:32:
                    0a:03:5b:4c:b6:8d:fa:12:8d:5d:dc:49:84:cf:fa:
                    64:82:6e:e3:0a:e0:c3:d8:d5:60:81:07:18:9f:82:
                    31:68:3a:41:8e:d7:4d:a5:b4:7e:fb:16:4a:df:45:
                    96:fd:4f:38:66:30:5f:39:d8:37:c8:88:3b:88:94:
                    69:3e:e9:90:7a:37:1d:34:ac:50:ae:43:81:4d:0a:
                    3a:68:33:f7:18:ba:07:0c:0b:53:71:bb:d4:0d:27:
                    15:22:d2:5b:09:a1:6e:3e:79:70:dc:2d:a9:d1:b9:
                    54:28:4b:1c:e3:96:0d:69:7a:88:d3:68:3e:04:20:
                    18:61
                Exponent: 65537 (0x10001)
        X509v3 extensions:
            X509v3 Basic Constraints: 
                CA:FALSE
            X509v3 Subject Key Identifier: 
                C5:AB:55:80:69:DC:FB:70:DF:F2:1A:29:CF:1E:93:A0:9E:9B:72:6B
            X509v3 Authority Key Identifier: 
                keyid:BD:26:3F:32:D1:52:CD:9A:A7:71:31:60:87:52:EE:3D:3F:67:5D:56
                DirName:/CN=Easy-RSA CA
                serial:7B:3F:EF:53:E6:EF:2A:57:F4:D9:0F:1D:CD:AE:AC:6C:80:2C:73:D7

            X509v3 Extended Key Usage: 
                TLS Web Client Authentication
            X509v3 Key Usage: 
                Digital Signature
    Signature Algorithm: sha256WithRSAEncryption
         66:1b:f2:26:33:69:5d:8e:bc:ad:8d:f1:2d:aa:20:fb:d2:b6:
         b1:88:4e:9f:66:c9:12:4f:12:9b:72:ef:bf:12:65:3c:0f:06:
         80:70:03:d2:6a:13:cf:d0:b5:fa:5c:ac:83:62:1b:d9:9e:19:
         a1:54:56:d3:6c:fa:90:7f:80:cd:a2:04:98:b2:5e:88:d0:e0:
         ba:e8:d2:b4:c3:b6:33:d3:79:9c:36:46:ea:52:e0:cb:fe:f1:
         ec:7b:4f:70:3b:b8:8c:c6:59:f3:70:cd:2e:4c:76:ab:a8:1c:
         25:28:04:16:64:cb:3f:76:c8:d6:bc:33:22:16:53:f0:59:a0:
         72:f2:ad:aa:07:18:cf:a7:d7:2f:ae:6d:c3:29:89:42:04:bc:
         6a:b2:78:e3:42:ab:00:d1:98:85:0e:6f:2c:f6:49:d7:08:f7:
         c1:db:6b:05:bd:5c:df:64:39:10:f8:94:80:e3:df:43:0d:67:
         24:8f:0c:77:f1:53:98:c3:d1:78:c2:3a:72:8c:1d:a0:a2:dc:
         b5:7e:ae:e0:78:93:fa:63:bf:a8:02:7b:8d:ed:62:26:26:bd:
         cd:71:04:75:96:7c:f9:20:50:ae:7c:66:52:9c:93:0e:d1:42:
         d3:51:80:bc:ec:d0:e2:0d:7d:05:d4:5d:95:1d:28:d0:07:a4:
         67:93:12:27
-----BEGIN CERTIFICATE-----
MIIDbjCCAlagAwIBAgIQO5mqInquWUeEyb4BtEBuGDANBgkqhkiG9w0BAQsFADAW
MRQwEgYDVQQDDAtFYXN5LVJTQSBDQTAeFw0yNDA4MDcwMDAzMjNaFw0yNjExMTAw
MDAzMjNaMCsxKTAnBgNVBAMMIHplTjh2QlVtNE1ueTZRdEdPZzMzaHpiSzRtcmV2
R2w0MIIBIjANBgkqhkiG9w0BAQEFAAOCAQ8AMIIBCgKCAQEAsAywuw2odoZk9hSX
GaKaGOuoWWV4ScF6amdKiD6RMWTDM0xRIWxPjf48gSAw5sAl5xlxaYolXZL6c/MP
9SB0mDGH0L7Wni0po11Uu6nuaEjnvrmVozykJOX6g1autXtc3Iwj/jQS+L/3+yY7
fl2gvHvpCSWIpiGV+XDT3IfFagpntvE50TIKA1tMto36Eo1d3EmEz/pkgm7jCuDD
2NVggQcYn4IxaDpBjtdNpbR++xZK30WW/U84ZjBfOdg3yIg7iJRpPumQejcdNKxQ
rkOBTQo6aDP3GLoHDAtTcbvUDScVItJbCaFuPnlw3C2p0blUKEsc45YNaXqI02g+
BCAYYQIDAQABo4GiMIGfMAkGA1UdEwQCMAAwHQYDVR0OBBYEFMWrVYBp3Ptw3/Ia
Kc8ek6Cem3JrMFEGA1UdIwRKMEiAFL0mPzLRUs2ap3ExYIdS7j0/Z11WoRqkGDAW
MRQwEgYDVQQDDAtFYXN5LVJTQSBDQYIUez/vU+bvKlf02Q8dza6sbIAsc9cwEwYD
VR0lBAwwCgYIKwYBBQUHAwIwCwYDVR0PBAQDAgeAMA0GCSqGSIb3DQEBCwUAA4IB
AQBmG/ImM2ldjrytjfEtqiD70raxiE6fZskSTxKbcu+/EmU8DwaAcAPSahPP0LX6
XKyDYhvZnhmhVFbTbPqQf4DNogSYsl6I0OC66NK0w7Yz03mcNkbqUuDL/vHse09w
O7iMxlnzcM0uTHarqBwlKAQWZMs/dsjWvDMiFlPwWaBy8q2qBxjPp9cvrm3DKYlC
BLxqsnjjQqsA0ZiFDm8s9knXCPfB22sFvVzfZDkQ+JSA499DDWckjwx38VOYw9F4
wjpyjB2goty1fq7geJP6Y7+oAnuN7WImJr3NcQR1lnz5IFCufGZSnJMO0ULTUYC8
7NDiDX0F1F2VHSjQB6RnkxIn
-----END CERTIFICATE-----
