Certificate:
    Data:
        Version: 3 (0x2)
        Serial Number:
            88:54:bd:a7:a2:29:b1:24:bc:ea:8b:3a:9a:e7:ef:a3
        Signature Algorithm: sha256WithRSAEncryption
        Issuer: CN=Easy-RSA CA
        Validity
            Not Before: Aug  7 00:02:49 2024 GMT
            Not After : Nov 10 00:02:49 2026 GMT
        Subject: CN=8zXVVxxvxBpGiZc1sRDQ322KheZi6Yzs
        Subject Public Key Info:
            Public Key Algorithm: rsaEncryption
                RSA Public-Key: (2048 bit)
                Modulus:
                    00:9e:84:f9:30:98:50:10:32:94:b5:ed:f1:f2:33:
                    03:ed:aa:77:dc:0c:65:57:4f:bd:f7:3c:58:89:55:
                    3c:22:b7:95:8e:c6:89:e0:76:5a:5d:eb:30:cc:b0:
                    ff:ed:9c:19:20:7c:eb:12:9b:c5:a2:b8:09:f3:b0:
                    06:83:1d:dc:ce:75:9d:6a:49:b2:a9:94:67:77:43:
                    0c:77:4a:0c:bf:81:37:28:c5:c5:d7:34:f9:e9:8e:
                    79:52:bd:86:35:2a:3b:7c:19:86:35:60:36:db:7f:
                    4c:ac:11:31:70:8b:b2:fb:6c:ff:93:8f:f3:a4:fa:
                    eb:18:c4:39:3d:9a:7b:de:66:5c:11:b8:94:bc:ed:
                    dd:9e:ce:f0:b1:fb:98:e7:1a:21:61:16:be:6b:2f:
                    cd:af:e2:9f:8e:81:6b:a5:2b:2d:d2:dc:12:bb:f1:
                    25:ca:12:ad:04:fb:59:1d:31:d6:80:94:51:ff:e1:
                    c2:94:e7:3f:53:b0:35:66:60:07:ae:95:0a:d3:75:
                    51:68:d7:b1:5d:41:31:c7:4a:f5:8c:4d:cd:e7:a6:
                    33:d4:55:45:61:6d:e4:0b:95:c3:02:6e:70:89:9c:
                    12:86:e0:4e:a9:a2:af:3e:01:fd:9d:ab:a0:9c:b5:
                    2d:14:fb:0f:5f:ec:57:fb:a3:5f:70:fd:4f:fd:ac:
                    d2:6d
                Exponent: 65537 (0x10001)
        X509v3 extensions:
            X509v3 Basic Constraints: 
                CA:FALSE
            X509v3 Subject Key Identifier: 
                D8:FD:27:82:8C:99:5C:0F:BC:D2:DD:C4:49:91:4B:5E:E6:94:7F:97
            X509v3 Authority Key Identifier: 
                keyid:88:83:0A:91:D3:16:78:31:6B:95:03:EF:B2:AA:AB:08:83:E7:1F:55
                DirName:/CN=Easy-RSA CA
                serial:4A:95:F6:74:8E:18:5D:88:15:A5:82:FD:FE:58:36:FF:C6:47:FC:8E

            X509v3 Extended Key Usage: 
                TLS Web Client Authentication
            X509v3 Key Usage: 
                Digital Signature
    Signature Algorithm: sha256WithRSAEncryption
         72:c9:88:a6:84:37:ce:65:fe:e7:44:ed:7b:29:62:1a:68:4a:
         34:14:50:0e:8f:75:aa:cf:6b:db:81:9d:e0:6e:66:75:f1:d6:
         8d:29:02:5f:ef:11:08:c4:81:dc:0e:6c:41:f3:a8:14:0d:7f:
         cf:a7:a7:d8:8f:7b:e9:60:c5:48:1a:24:d8:0a:dc:3c:74:a2:
         d8:d5:31:1e:2f:b9:73:21:a8:59:62:22:10:18:f3:8d:e3:fc:
         d5:6b:67:ba:91:f6:ab:4e:82:60:8e:97:8b:15:88:ce:c7:e5:
         0c:da:8a:5b:4c:f9:6c:5c:a3:67:d4:ca:f1:b2:7e:ac:01:1c:
         71:b1:e4:a6:53:b5:86:82:50:b2:d3:24:81:5a:2b:f3:c4:88:
         3a:6d:20:61:99:a1:86:94:f6:34:ff:5e:3a:d4:6d:e2:8a:ca:
         7c:d5:f2:bd:6c:ce:b8:03:0a:2e:ba:77:02:1d:15:71:7e:27:
         75:73:95:ba:b8:41:66:e6:ef:40:18:52:ea:11:00:15:49:0e:
         58:98:89:31:01:2d:6b:fd:3c:af:3a:b0:88:e1:14:fd:64:c8:
         9c:e7:52:fd:cc:d4:82:d1:27:9f:13:c1:b9:a3:3d:9c:65:ca:
         18:f6:2e:8b:70:b0:38:34:d9:c1:4d:0f:f9:d6:17:93:ff:20:
         76:cb:9f:ac
-----BEGIN CERTIFICATE-----
MIIDbzCCAlegAwIBAgIRAIhUvaeiKbEkvOqLOprn76MwDQYJKoZIhvcNAQELBQAw
FjEUMBIGA1UEAwwLRWFzeS1SU0EgQ0EwHhcNMjQwODA3MDAwMjQ5WhcNMjYxMTEw
MDAwMjQ5WjArMSkwJwYDVQQDDCA4elhWVnh4dnhCcEdpWmMxc1JEUTMyMktoZVpp
Nll6czCCASIwDQYJKoZIhvcNAQEBBQADggEPADCCAQoCggEBAJ6E+TCYUBAylLXt
8fIzA+2qd9wMZVdPvfc8WIlVPCK3lY7GieB2Wl3rMMyw/+2cGSB86xKbxaK4CfOw
BoMd3M51nWpJsqmUZ3dDDHdKDL+BNyjFxdc0+emOeVK9hjUqO3wZhjVgNtt/TKwR
MXCLsvts/5OP86T66xjEOT2ae95mXBG4lLzt3Z7O8LH7mOcaIWEWvmsvza/in46B
a6UrLdLcErvxJcoSrQT7WR0x1oCUUf/hwpTnP1OwNWZgB66VCtN1UWjXsV1BMcdK
9YxNzeemM9RVRWFt5AuVwwJucImcEobgTqmirz4B/Z2roJy1LRT7D1/sV/ujX3D9
T/2s0m0CAwEAAaOBojCBnzAJBgNVHRMEAjAAMB0GA1UdDgQWBBTY/SeCjJlcD7zS
3cRJkUte5pR/lzBRBgNVHSMESjBIgBSIgwqR0xZ4MWuVA++yqqsIg+cfVaEapBgw
FjEUMBIGA1UEAwwLRWFzeS1SU0EgQ0GCFEqV9nSOGF2IFaWC/f5YNv/GR/yOMBMG
A1UdJQQMMAoGCCsGAQUFBwMCMAsGA1UdDwQEAwIHgDANBgkqhkiG9w0BAQsFAAOC
AQEAcsmIpoQ3zmX+50TteyliGmhKNBRQDo91qs9r24Gd4G5mdfHWjSkCX+8RCMSB
3A5sQfOoFA1/z6en2I976WDFSBok2ArcPHSi2NUxHi+5cyGoWWIiEBjzjeP81Wtn
upH2q06CYI6XixWIzsflDNqKW0z5bFyjZ9TK8bJ+rAEccbHkplO1hoJQstMkgVor
88SIOm0gYZmhhpT2NP9eOtRt4orKfNXyvWzOuAMKLrp3Ah0VcX4ndXOVurhBZubv
QBhS6hEAFUkOWJiJMQEta/08rzqwiOEU/WTInOdS/czUgtEnnxPBuaM9nGXKGPYu
i3CwODTZwU0P+dYXk/8gdsufrA==
-----END CERTIFICATE-----
