Certificate:
    Data:
        Version: 3 (0x2)
        Serial Number:
            6c:d5:eb:04:d0:ec:d3:57:a3:a7:93:42:34:34:4f:bc
        Signature Algorithm: sha256WithRSAEncryption
        Issuer: CN=Easy-RSA CA
        Validity
            Not Before: Aug  7 00:03:14 2024 GMT
            Not After : Nov 10 00:03:14 2026 GMT
        Subject: CN=MyReq
        Subject Public Key Info:
            Public Key Algorithm: rsaEncryption
                RSA Public-Key: (2048 bit)
                Modulus:
                    00:c1:63:c8:56:84:de:e6:79:7b:8a:05:34:c4:f2:
                    41:32:ea:d9:74:a4:65:cf:93:9c:2d:ed:dd:5a:31:
                    19:ef:0f:b5:9d:e5:7d:7e:bf:81:86:08:e1:2a:52:
                    7d:f1:e4:2a:2a:f3:c3:3e:f3:19:50:73:89:65:9b:
                    4b:6a:ce:ac:e4:17:0a:a4:22:be:04:fd:51:be:c1:
                    fe:c1:b6:bb:53:67:27:65:a2:c9:a7:35:c3:ce:91:
                    17:7e:de:6e:ca:38:32:ff:12:f8:0d:bf:18:71:c0:
                    fb:6e:92:89:63:f5:dd:b6:6f:34:1e:10:da:37:20:
                    8a:a1:d2:a4:c3:4d:85:d6:0b:c3:3a:88:c4:c0:7c:
                    31:f6:61:a2:cb:15:90:93:16:5b:89:8c:00:80:9f:
                    1e:c9:1e:16:54:6f:5c:ec:ec:4f:42:f3:31:30:8f:
                    b2:66:90:5a:a2:af:15:5e:c2:42:0a:5b:cb:07:00:
                    52:52:ee:ed:6d:37:64:b7:8e:9c:dd:44:b6:00:cf:
                    5e:f4:fa:4b:ae:8d:87:eb:22:4c:82:eb:8b:8a:78:
                    07:e8:76:a6:de:7b:71:90:58:84:f9:ff:c1:ed:9b:
                    ea:79:e5:a0:fc:42:39:d6:86:83:75:9f:e9:22:4b:
                    87:c2:9a:1a:ad:d2:a9:fc:9e:9e:0d:17:a2:04:ea:
                    d7:cf
                Exponent: 65537 (0x10001)
        X509v3 extensions:
            X509v3 Basic Constraints: 
                CA:FALSE
            X509v3 Subject Key Identifier: 
                1B:34:40:F7:EE:1D:AC:74:A1:64:2F:F9:88:01:73:58:69:BF:69:B0
            X509v3 Authority Key Identifier: 
                keyid:92:F7:D1:1B:22:AC:AF:0A:38:35:DC:93:95:9D:08:B8:10:91:3C:5F
                DirName:/CN=Easy-RSA CA
                serial:51:7D:F8:79:80:10:F9:B0:98:9B:E9:5A:CB:FB:ED:0D:CF:85:9B:40

            X509v3 Extended Key Usage: 
                TLS Web Server Authentication
            X509v3 Key Usage: 
                Digital Signature, Key Encipherment
            X509v3 Subject Alternative Name: 
                DNS:MyReq
    Signature Algorithm: sha256WithRSAEncryption
         c1:46:f0:54:46:df:3c:d8:0e:94:99:5c:48:81:04:c1:82:38:
         16:ac:79:6b:0e:4b:ab:ee:8a:1e:55:95:0c:3f:81:26:59:dd:
         9b:35:60:bc:11:aa:27:a1:b5:d1:28:99:24:85:87:61:6e:33:
         89:cc:a1:88:69:cc:ac:f5:da:1a:7f:59:cb:32:50:e9:9c:94:
         b1:20:a1:ab:11:16:98:72:13:ed:94:b3:fc:f6:45:bf:b3:26:
         eb:48:e7:4e:cc:0b:6e:50:f2:a4:b0:21:94:d2:dc:db:3f:c4:
         ee:39:63:00:33:4c:d7:a5:54:46:96:ca:9e:ac:20:ed:9c:3d:
         33:d1:99:d0:4b:27:35:6c:7c:a4:4d:96:34:00:57:1f:22:cf:
         9c:49:65:f1:fb:34:82:21:aa:62:60:69:c0:fc:b2:25:10:d8:
         ca:e1:3d:c7:cd:c5:99:ea:3c:2c:1c:a0:77:3f:44:0f:e9:e9:
         d4:9e:20:b7:fd:8e:b6:93:81:8d:a4:d9:60:b5:e5:6b:af:61:
         e5:35:04:d7:01:59:b8:63:3f:98:95:3c:23:2f:8e:13:8c:c7:
         31:5e:93:82:dc:49:14:81:d5:5e:4d:50:c2:d0:c5:c5:63:b8:
         07:9f:84:d4:5e:f0:3b:fc:4d:cb:96:de:4b:e0:15:7d:f3:23:
         a1:c2:34:21
-----BEGIN CERTIFICATE-----
MIIDZTCCAk2gAwIBAgIQbNXrBNDs01ejp5NCNDRPvDANBgkqhkiG9w0BAQsFADAW
MRQwEgYDVQQDDAtFYXN5LVJTQSBDQTAeFw0yNDA4MDcwMDAzMTRaFw0yNjExMTAw
MDAzMTRaMBAxDjAMBgNVBAMMBU15UmVxMIIBIjANBgkqhkiG9w0BAQEFAAOCAQ8A
MIIBCgKCAQEAwWPIVoTe5nl7igU0xPJBMurZdKRlz5OcLe3dWjEZ7w+1neV9fr+B
hgjhKlJ98eQqKvPDPvMZUHOJZZtLas6s5BcKpCK+BP1RvsH+wba7U2cnZaLJpzXD
zpEXft5uyjgy/xL4Db8YccD7bpKJY/Xdtm80HhDaNyCKodKkw02F1gvDOojEwHwx
9mGiyxWQkxZbiYwAgJ8eyR4WVG9c7OxPQvMxMI+yZpBaoq8VXsJCClvLBwBSUu7t
bTdkt46c3US2AM9e9PpLro2H6yJMguuLingH6Ham3ntxkFiE+f/B7ZvqeeWg/EI5
1oaDdZ/pIkuHwpoardKp/J6eDReiBOrXzwIDAQABo4G0MIGxMAkGA1UdEwQCMAAw
HQYDVR0OBBYEFBs0QPfuHax0oWQv+YgBc1hpv2mwMFEGA1UdIwRKMEiAFJL30Rsi
rK8KODXck5WdCLgQkTxfoRqkGDAWMRQwEgYDVQQDDAtFYXN5LVJTQSBDQYIUUX34
eYAQ+bCYm+lay/vtDc+Fm0AwEwYDVR0lBAwwCgYIKwYBBQUHAwEwCwYDVR0PBAQD
AgWgMBAGA1UdEQQJMAeCBU15UmVxMA0GCSqGSIb3DQEBCwUAA4IBAQDBRvBURt88
2A6UmVxIgQTBgjgWrHlrDkur7ooeVZUMP4EmWd2bNWC8EaonobXRKJkkhYdhbjOJ
zKGIacys9doaf1nLMlDpnJSxIKGrERaYchPtlLP89kW/sybrSOdOzAtuUPKksCGU
0tzbP8TuOWMAM0zXpVRGlsqerCDtnD0z0ZnQSyc1bHykTZY0AFcfIs+cSWXx+zSC
IapiYGnA/LIlENjK4T3HzcWZ6jwsHKB3P0QP6enUniC3/Y62k4GNpNlgteVrr2Hl
NQTXAVm4Yz+YlTwjL44TjMcxXpOC3EkUgdVeTVDC0MXFY7gHn4TUXvA7/E3Llt5L
4BV98yOhwjQh
-----END CERTIFICATE-----
