Certificate:
    Data:
        Version: 3 (0x2)
        Serial Number:
            aa:4e:a3:e2:69:5d:95:5d:9e:00:5f:c8:f7:3b:2b:ad
        Signature Algorithm: sha256WithRSAEncryption
        Issuer: CN=Easy-RSA CA
        Validity
            Not Before: Jul 15 15:19:15 2024 GMT
            Not After : Oct 18 15:19:15 2026 GMT
        Subject: CN=MyReq
        Subject Public Key Info:
            Public Key Algorithm: rsaEncryption
                RSA Public-Key: (2048 bit)
                Modulus:
                    00:9d:72:31:27:24:88:8c:90:f3:8c:6a:fa:d9:83:
                    6d:09:7e:a8:89:80:be:67:09:1c:d7:ba:46:84:58:
                    8b:1f:9d:2c:d0:61:55:bd:d9:77:d2:14:ac:20:7a:
                    b1:25:c6:71:32:46:e7:89:9f:bb:ab:65:8e:8c:05:
                    b1:9c:46:46:f6:a0:bd:1a:60:97:4c:ff:2c:81:fb:
                    a2:81:e7:a0:1e:f4:8c:b9:69:a1:bd:b1:2a:47:d9:
                    50:52:a4:cc:3f:8b:4a:7e:4f:43:a5:56:2b:d8:de:
                    a9:94:3b:33:59:f1:38:f4:21:58:16:d4:bc:0a:bc:
                    c5:de:fe:2f:8a:6f:58:25:53:b5:39:af:74:fc:25:
                    1a:86:6a:00:ae:8a:a3:94:5d:77:7b:13:8e:e8:58:
                    8d:df:cd:7f:0d:ba:a1:96:d4:7b:db:67:60:8a:e9:
                    4b:75:71:15:b1:20:98:39:b2:27:96:25:85:cf:07:
                    1e:16:6f:55:86:b9:96:18:62:6d:37:60:16:52:bb:
                    e3:d1:f2:e9:25:ad:fc:3b:32:23:5a:c2:2d:f3:47:
                    8f:23:78:73:b9:79:9f:20:9e:9c:72:e1:10:bd:d6:
                    d5:f5:46:18:42:b8:b9:7f:44:b7:a1:a1:64:67:92:
                    b2:d4:ca:a6:f6:cc:85:03:a0:b7:d0:5d:37:ce:38:
                    27:3b
                Exponent: 65537 (0x10001)
        X509v3 extensions:
            X509v3 Basic Constraints: 
                CA:FALSE
            X509v3 Subject Key Identifier: 
                E1:D5:64:62:B9:B7:28:E5:17:CD:E9:46:B7:6D:F9:E1:E8:28:B3:FC
            X509v3 Authority Key Identifier: 
                keyid:DE:11:10:40:B7:E0:C5:9F:0E:59:60:39:B2:55:21:C2:9F:56:93:2B
                DirName:/CN=Easy-RSA CA
                serial:08:CB:14:25:68:45:F7:B7:12:89:09:1D:E0:F7:7F:9E:E4:85:B8:7B

            X509v3 Extended Key Usage: 
                TLS Web Server Authentication
            X509v3 Key Usage: 
                Digital Signature, Key Encipherment
            X509v3 Subject Alternative Name: 
                DNS:MyReq
    Signature Algorithm: sha256WithRSAEncryption
         9f:16:e5:fd:41:8e:ea:20:50:3a:e9:50:a2:d1:7b:7d:21:68:
         26:b6:01:dc:b9:f2:5f:dd:47:b3:9a:0e:0f:54:46:a5:e8:73:
         3d:3a:3b:9b:3f:6c:b1:2b:b5:4c:12:f6:1c:3f:85:8c:ec:e3:
         8d:63:63:37:f4:ef:88:3f:b4:0f:e1:8d:52:02:7d:cc:38:0f:
         78:73:87:1d:8f:8a:ba:ef:33:bd:fb:d3:45:60:28:ac:80:54:
         b7:e8:a7:06:ab:8b:24:bd:49:da:85:80:9d:56:b8:81:34:22:
         3f:ce:b7:18:09:12:e2:ad:ba:69:0d:2a:f5:11:0e:0d:95:a5:
         4b:26:18:57:3b:02:09:25:af:5c:27:96:fd:5b:55:c8:ec:36:
         1b:91:31:aa:cd:a1:b8:ab:a2:11:ac:2b:fa:1e:cd:68:4b:bb:
         54:75:ee:a0:20:b3:7e:49:2f:6e:bc:ed:77:46:30:34:2a:7f:
         6b:0d:e7:78:ff:f5:fd:d5:a4:75:b0:de:9b:de:d1:6b:5d:25:
         b8:c5:3b:20:b9:bc:27:75:72:9e:63:bd:b3:bc:44:87:30:5b:
         6a:0d:44:eb:6d:b7:9c:63:5f:23:a9:d5:e2:b9:82:b5:10:27:
         ac:fd:58:cd:3e:f4:17:cf:69:f6:45:2b:28:16:80:76:d7:40:
         bb:21:9b:84
-----BEGIN CERTIFICATE-----
MIIDZjCCAk6gAwIBAgIRAKpOo+JpXZVdngBfyPc7K60wDQYJKoZIhvcNAQELBQAw
FjEUMBIGA1UEAwwLRWFzeS1SU0EgQ0EwHhcNMjQwNzE1MTUxOTE1WhcNMjYxMDE4
MTUxOTE1WjAQMQ4wDAYDVQQDDAVNeVJlcTCCASIwDQYJKoZIhvcNAQEBBQADggEP
ADCCAQoCggEBAJ1yMSckiIyQ84xq+tmDbQl+qImAvmcJHNe6RoRYix+dLNBhVb3Z
d9IUrCB6sSXGcTJG54mfu6tljowFsZxGRvagvRpgl0z/LIH7ooHnoB70jLlpob2x
KkfZUFKkzD+LSn5PQ6VWK9jeqZQ7M1nxOPQhWBbUvAq8xd7+L4pvWCVTtTmvdPwl
GoZqAK6Ko5Rdd3sTjuhYjd/Nfw26oZbUe9tnYIrpS3VxFbEgmDmyJ5Ylhc8HHhZv
VYa5lhhibTdgFlK749Hy6SWt/DsyI1rCLfNHjyN4c7l5nyCenHLhEL3W1fVGGEK4
uX9Et6GhZGeSstTKpvbMhQOgt9BdN844JzsCAwEAAaOBtDCBsTAJBgNVHRMEAjAA
MB0GA1UdDgQWBBTh1WRiubco5RfN6Ua3bfnh6Ciz/DBRBgNVHSMESjBIgBTeERBA
t+DFnw5ZYDmyVSHCn1aTK6EapBgwFjEUMBIGA1UEAwwLRWFzeS1SU0EgQ0GCFAjL
FCVoRfe3EokJHeD3f57khbh7MBMGA1UdJQQMMAoGCCsGAQUFBwMBMAsGA1UdDwQE
AwIFoDAQBgNVHREECTAHggVNeVJlcTANBgkqhkiG9w0BAQsFAAOCAQEAnxbl/UGO
6iBQOulQotF7fSFoJrYB3LnyX91Hs5oOD1RGpehzPTo7mz9ssSu1TBL2HD+FjOzj
jWNjN/TviD+0D+GNUgJ9zDgPeHOHHY+Kuu8zvfvTRWAorIBUt+inBquLJL1J2oWA
nVa4gTQiP863GAkS4q26aQ0q9REODZWlSyYYVzsCCSWvXCeW/VtVyOw2G5Exqs2h
uKuiEawr+h7NaEu7VHXuoCCzfkkvbrztd0YwNCp/aw3neP/1/dWkdbDem97Ra10l
uMU7ILm8J3VynmO9s7xEhzBbag1E6223nGNfI6nV4rmCtRAnrP1YzT70F89p9kUr
KBaAdtdAuyGbhA==
-----END CERTIFICATE-----
