Certificate:
    Data:
        Version: 3 (0x2)
        Serial Number:
            df:18:bc:85:65:16:c3:98:47:bb:17:be:bc:31:dc:2a
        Signature Algorithm: sha256WithRSAEncryption
        Issuer: CN=Easy-RSA CA
        Validity
            Not Before: Jul 15 15:19:15 2024 GMT
            Not After : Oct 18 15:19:15 2026 GMT
        Subject: CN=zYO6hsI44WPfXhMkYZJCaQLtMM2EDhHf
        Subject Public Key Info:
            Public Key Algorithm: rsaEncryption
                RSA Public-Key: (2048 bit)
                Modulus:
                    00:b3:f4:7e:c9:0a:a6:4c:49:29:54:c0:95:ad:eb:
                    78:ba:b8:86:2d:0b:ad:06:2d:21:c1:62:09:3b:76:
                    45:6d:e2:5e:74:11:3e:cf:10:67:bd:c0:c9:1e:47:
                    54:c7:4a:1d:a2:1a:06:62:9c:5c:0f:7e:85:8f:05:
                    fc:44:be:0b:6c:83:37:d5:2d:b0:df:c1:80:97:4d:
                    d0:f9:a0:76:44:70:ee:59:0f:d3:cf:0c:5a:93:e4:
                    92:8b:82:ec:5a:00:eb:61:7f:11:04:da:c9:48:35:
                    64:e9:af:3c:30:67:00:69:ef:95:e5:0f:03:4d:be:
                    48:85:28:49:74:c4:2f:d2:2b:80:41:6d:61:f7:2d:
                    33:55:0a:11:83:c9:b9:2a:17:ee:28:c4:17:66:07:
                    f5:0d:21:62:c2:55:29:b6:26:0c:db:7e:e8:2d:a5:
                    ce:dd:9f:df:5f:6e:6a:7b:19:20:ce:54:2b:32:e7:
                    06:c6:27:ea:c9:8e:2d:69:39:be:10:e0:cb:c3:a5:
                    79:51:15:4f:c0:18:b0:e9:62:82:ec:df:43:bc:0c:
                    d9:06:eb:86:db:ba:6e:87:13:56:4c:09:be:d2:69:
                    1d:bb:57:3a:d2:4a:22:1e:31:e0:2a:37:fd:e7:3e:
                    70:9b:88:89:4e:ef:95:5a:ed:40:82:d8:78:ca:94:
                    ac:7d
                Exponent: 65537 (0x10001)
        X509v3 extensions:
            X509v3 Basic Constraints: 
                CA:FALSE
            X509v3 Subject Key Identifier: 
                66:D2:D3:7F:FB:DD:B3:87:A3:A4:6A:03:15:D9:2F:EB:CD:AE:D3:C9
            X509v3 Authority Key Identifier: 
                keyid:DE:11:10:40:B7:E0:C5:9F:0E:59:60:39:B2:55:21:C2:9F:56:93:2B
                DirName:/CN=Easy-RSA CA
                serial:08:CB:14:25:68:45:F7:B7:12:89:09:1D:E0:F7:7F:9E:E4:85:B8:7B

            X509v3 Extended Key Usage: 
                TLS Web Client Authentication
            X509v3 Key Usage: 
                Digital Signature
    Signature Algorithm: sha256WithRSAEncryption
         30:3d:3c:71:fa:cb:f4:12:95:c8:87:94:03:43:c1:1c:b7:da:
         9e:19:87:d9:c5:6a:11:bc:41:a0:ba:bf:a9:6f:d4:d3:3d:3d:
         ac:d0:1b:c8:f7:24:06:8d:2e:86:3b:a0:7b:4a:cd:d6:9d:5a:
         27:19:30:48:7d:cc:0c:18:37:e5:10:45:dc:f5:38:e4:84:c2:
         5b:1c:47:7a:81:74:c3:7d:8d:4c:08:42:c1:38:b8:63:b6:41:
         33:5d:75:45:29:d5:fd:a3:65:7c:c4:f2:d8:4b:b5:40:6b:28:
         14:18:2f:1d:6b:2d:ef:99:6c:a9:93:b1:be:05:56:08:ab:9a:
         88:72:0d:b7:cc:bf:21:a4:a4:f7:4c:fb:b1:a7:9f:a0:41:ca:
         89:25:75:0c:3a:4d:50:0c:18:81:88:5e:83:0c:db:f6:ed:6e:
         9c:45:d5:46:01:12:e0:0f:38:2b:b5:ed:60:0c:79:11:dd:aa:
         66:47:d5:ed:18:6a:94:3d:09:5c:08:92:bd:29:69:03:ae:35:
         36:cf:d4:11:d5:11:07:bd:d0:62:c8:c9:ec:c0:fe:ed:8f:9f:
         5a:39:cf:81:16:16:4f:f2:61:07:16:d4:6c:b7:4e:95:4f:62:
         b8:eb:99:48:51:1f:fe:64:68:54:02:94:1d:f9:85:75:a9:8d:
         f8:1e:e0:5a
-----BEGIN CERTIFICATE-----
MIIDbzCCAlegAwIBAgIRAN8YvIVlFsOYR7sXvrwx3CowDQYJKoZIhvcNAQELBQAw
FjEUMBIGA1UEAwwLRWFzeS1SU0EgQ0EwHhcNMjQwNzE1MTUxOTE1WhcNMjYxMDE4
MTUxOTE1WjArMSkwJwYDVQQDDCB6WU82aHNJNDRXUGZYaE1rWVpKQ2FRTHRNTTJF
RGhIZjCCASIwDQYJKoZIhvcNAQEBBQADggEPADCCAQoCggEBALP0fskKpkxJKVTA
la3reLq4hi0LrQYtIcFiCTt2RW3iXnQRPs8QZ73AyR5HVMdKHaIaBmKcXA9+hY8F
/ES+C2yDN9UtsN/BgJdN0PmgdkRw7lkP088MWpPkkouC7FoA62F/EQTayUg1ZOmv
PDBnAGnvleUPA02+SIUoSXTEL9IrgEFtYfctM1UKEYPJuSoX7ijEF2YH9Q0hYsJV
KbYmDNt+6C2lzt2f319uansZIM5UKzLnBsYn6smOLWk5vhDgy8OleVEVT8AYsOli
guzfQ7wM2Qbrhtu6bocTVkwJvtJpHbtXOtJKIh4x4Co3/ec+cJuIiU7vlVrtQILY
eMqUrH0CAwEAAaOBojCBnzAJBgNVHRMEAjAAMB0GA1UdDgQWBBRm0tN/+92zh6Ok
agMV2S/rza7TyTBRBgNVHSMESjBIgBTeERBAt+DFnw5ZYDmyVSHCn1aTK6EapBgw
FjEUMBIGA1UEAwwLRWFzeS1SU0EgQ0GCFAjLFCVoRfe3EokJHeD3f57khbh7MBMG
A1UdJQQMMAoGCCsGAQUFBwMCMAsGA1UdDwQEAwIHgDANBgkqhkiG9w0BAQsFAAOC
AQEAMD08cfrL9BKVyIeUA0PBHLfanhmH2cVqEbxBoLq/qW/U0z09rNAbyPckBo0u
hjuge0rN1p1aJxkwSH3MDBg35RBF3PU45ITCWxxHeoF0w32NTAhCwTi4Y7ZBM111
RSnV/aNlfMTy2Eu1QGsoFBgvHWst75lsqZOxvgVWCKuaiHINt8y/IaSk90z7saef
oEHKiSV1DDpNUAwYgYhegwzb9u1unEXVRgES4A84K7XtYAx5Ed2qZkfV7RhqlD0J
XAiSvSlpA641Ns/UEdURB73QYsjJ7MD+7Y+fWjnPgRYWT/JhBxbUbLdOlU9iuOuZ
SFEf/mRoVAKUHfmFdamN+B7gWg==
-----END CERTIFICATE-----
