Certificate:
    Data:
        Version: 3 (0x2)
        Serial Number:
            74:fb:14:d5:80:5a:10:c1:25:43:b6:89:5e:08:9c:69
        Signature Algorithm: sha256WithRSAEncryption
        Issuer: CN=Easy-RSA CA
        Validity
            Not Before: Aug  7 00:03:06 2024 GMT
            Not After : Nov 10 00:03:06 2026 GMT
        Subject: CN=wtUa7POTJo1JfwnCzuAAz9rTA6DF9nDB
        Subject Public Key Info:
            Public Key Algorithm: rsaEncryption
                RSA Public-Key: (2048 bit)
                Modulus:
                    00:a5:9f:8a:02:af:bc:68:02:86:de:8e:c7:25:2a:
                    6f:a4:21:28:cd:28:07:ea:cf:38:29:6d:41:68:b8:
                    db:ed:40:c5:ac:77:42:ba:ca:9d:df:fe:ca:f0:58:
                    f9:23:79:5c:68:bf:f8:99:a9:02:03:f3:4b:ab:d6:
                    a3:0d:b6:a4:f3:b4:cb:fd:07:f8:75:f2:3c:7f:49:
                    fd:19:c5:7f:55:e0:76:d9:9e:c1:42:c6:16:c6:f8:
                    c2:db:e9:90:7f:c2:3b:1d:cb:c8:c1:e5:ff:2c:ca:
                    31:7b:ce:5a:d8:58:f4:eb:ed:43:c7:3b:28:bc:39:
                    12:7f:04:22:ab:a4:24:3b:b7:8f:61:26:b1:4c:a1:
                    41:3b:3e:d2:ab:5f:97:4c:0c:a1:00:e5:4b:31:ad:
                    cf:00:c8:ef:65:f1:5e:b1:ef:d0:cf:5f:99:32:af:
                    8d:48:77:d7:77:c2:ac:4a:13:bb:a4:bd:4e:a0:7d:
                    30:48:72:ba:7e:ad:60:eb:e5:f3:a8:47:1b:40:38:
                    d3:c4:15:21:3f:e0:cd:54:58:74:0a:13:5b:da:35:
                    6f:10:be:09:be:f6:5c:6d:6a:ac:e7:d8:e0:30:9b:
                    68:cf:94:e4:38:e5:da:88:a3:8d:3b:7f:67:bb:0c:
                    95:dc:30:56:c5:34:cd:96:0d:7c:44:ca:0a:53:de:
                    1e:b7
                Exponent: 65537 (0x10001)
        X509v3 extensions:
            X509v3 Basic Constraints: 
                CA:FALSE
            X509v3 Subject Key Identifier: 
                3C:D2:E9:FC:FF:84:3E:F7:D1:45:31:7E:6C:04:1D:54:8B:8E:EA:9C
            X509v3 Authority Key Identifier: 
                keyid:35:A6:D9:61:81:97:1E:D1:EC:78:64:F2:B8:FD:10:48:E5:EA:F1:B5
                DirName:/CN=Easy-RSA CA
                serial:05:7B:90:41:B2:B7:61:33:90:02:5D:C8:03:89:32:E7:CF:B9:BC:01

            X509v3 Extended Key Usage: 
                TLS Web Client Authentication
            X509v3 Key Usage: 
                Digital Signature
    Signature Algorithm: sha256WithRSAEncryption
         96:a5:d5:7b:12:8f:4c:06:7c:19:43:a2:81:1f:22:d8:a7:a7:
         02:4b:69:7d:6b:7d:32:f7:e5:3b:24:07:d7:2f:67:fa:8f:a8:
         a2:4d:30:da:c7:af:c0:c3:cc:b5:5c:75:ef:3c:c2:ae:22:26:
         c9:3c:a6:ff:fe:55:43:a8:53:90:81:c4:38:89:ba:fd:84:e5:
         86:17:32:b1:fd:d4:d4:16:64:c3:69:1a:ee:28:64:94:60:8a:
         6d:6f:a8:b0:34:c2:54:6b:1c:d6:42:8a:10:f6:df:af:9b:6e:
         2a:83:a7:8a:36:c0:83:52:a2:6f:df:03:de:20:e8:0c:5f:6a:
         bf:9f:c3:67:52:e9:a2:81:64:1d:10:81:06:1b:a6:fd:dc:10:
         b3:af:c7:c6:62:40:2e:ac:8c:96:5e:fd:c9:1b:fe:bb:71:97:
         77:69:a5:3c:03:51:d0:05:19:16:ca:c1:33:30:bf:fc:66:96:
         16:56:41:72:73:ee:51:18:95:7c:51:e0:28:31:fa:ad:0e:b5:
         f0:97:f9:1a:db:60:eb:a2:c6:9c:b4:c4:d2:93:77:63:21:8f:
         fd:34:88:99:93:4e:e7:de:10:9e:be:7d:45:2a:88:f4:0e:b0:
         03:00:71:dc:f8:6b:b4:15:ee:9f:ec:89:9b:d4:98:64:fe:e3:
         49:91:c8:29
-----BEGIN CERTIFICATE-----
MIIDbjCCAlagAwIBAgIQdPsU1YBaEMElQ7aJXgicaTANBgkqhkiG9w0BAQsFADAW
MRQwEgYDVQQDDAtFYXN5LVJTQSBDQTAeFw0yNDA4MDcwMDAzMDZaFw0yNjExMTAw
MDAzMDZaMCsxKTAnBgNVBAMMIHd0VWE3UE9USm8xSmZ3bkN6dUFBejlyVEE2REY5
bkRCMIIBIjANBgkqhkiG9w0BAQEFAAOCAQ8AMIIBCgKCAQEApZ+KAq+8aAKG3o7H
JSpvpCEozSgH6s84KW1BaLjb7UDFrHdCusqd3/7K8Fj5I3lcaL/4makCA/NLq9aj
Dbak87TL/Qf4dfI8f0n9GcV/VeB22Z7BQsYWxvjC2+mQf8I7HcvIweX/LMoxe85a
2Fj06+1DxzsovDkSfwQiq6QkO7ePYSaxTKFBOz7Sq1+XTAyhAOVLMa3PAMjvZfFe
se/Qz1+ZMq+NSHfXd8KsShO7pL1OoH0wSHK6fq1g6+XzqEcbQDjTxBUhP+DNVFh0
ChNb2jVvEL4JvvZcbWqs59jgMJtoz5TkOOXaiKONO39nuwyV3DBWxTTNlg18RMoK
U94etwIDAQABo4GiMIGfMAkGA1UdEwQCMAAwHQYDVR0OBBYEFDzS6fz/hD730UUx
fmwEHVSLjuqcMFEGA1UdIwRKMEiAFDWm2WGBlx7R7Hhk8rj9EEjl6vG1oRqkGDAW
MRQwEgYDVQQDDAtFYXN5LVJTQSBDQYIUBXuQQbK3YTOQAl3IA4ky58+5vAEwEwYD
VR0lBAwwCgYIKwYBBQUHAwIwCwYDVR0PBAQDAgeAMA0GCSqGSIb3DQEBCwUAA4IB
AQCWpdV7Eo9MBnwZQ6KBHyLYp6cCS2l9a30y9+U7JAfXL2f6j6iiTTDax6/Aw8y1
XHXvPMKuIibJPKb//lVDqFOQgcQ4ibr9hOWGFzKx/dTUFmTDaRruKGSUYIptb6iw
NMJUaxzWQooQ9t+vm24qg6eKNsCDUqJv3wPeIOgMX2q/n8NnUumigWQdEIEGG6b9
3BCzr8fGYkAurIyWXv3JG/67cZd3aaU8A1HQBRkWysEzML/8ZpYWVkFyc+5RGJV8
UeAoMfqtDrXwl/ka22DrosactMTSk3djIY/9NIiZk07n3hCevn1FKoj0DrADAHHc
+Gu0Fe6f7Imb1Jhk/uNJkcgp
-----END CERTIFICATE-----
