Certificate:
    Data:
        Version: 3 (0x2)
        Serial Number:
            ec:5d:fc:df:86:19:74:dd:2c:51:44:92:42:2e:08:d9
        Signature Algorithm: sha256WithRSAEncryption
        Issuer: CN=Easy-RSA CA
        Validity
            Not Before: Aug  7 00:02:57 2024 GMT
            Not After : Nov 10 00:02:57 2026 GMT
        Subject: CN=ePwwNjIkP5RWZBoyj4ADuwFaeY5OUtm7
        Subject Public Key Info:
            Public Key Algorithm: rsaEncryption
                RSA Public-Key: (2048 bit)
                Modulus:
                    00:cb:bc:8b:00:7f:8f:98:71:db:65:2f:89:23:ea:
                    e2:f4:34:07:4d:4e:b4:bc:a4:e6:74:cf:8a:e4:8a:
                    de:e1:7b:5a:90:e0:56:ae:f4:09:25:45:5f:02:50:
                    8e:30:95:77:c8:6a:9c:c3:4c:48:91:49:37:75:d8:
                    a8:2e:aa:cb:10:57:3c:05:97:d6:42:e2:75:50:39:
                    cb:5c:2e:9d:b3:3d:91:f3:2d:de:75:7e:1d:48:03:
                    dd:7e:f2:c0:ad:e0:ff:60:a3:c5:a6:3d:f5:09:5c:
                    ec:3a:ce:b4:6b:c2:96:a6:89:89:cf:f6:b0:b4:d3:
                    ff:13:07:83:21:24:57:68:d9:94:75:f7:7d:36:1b:
                    23:e8:c0:c2:cc:49:44:4d:87:5f:f5:dc:15:39:fe:
                    05:00:ab:8b:7a:a3:c0:80:dc:dc:59:a3:a8:f4:9c:
                    b9:ac:49:f8:db:41:41:9e:9a:5f:23:fa:3f:f2:fc:
                    eb:56:c5:8d:71:d7:e0:7d:be:17:23:a8:21:94:3e:
                    ec:33:ee:97:53:00:01:23:71:77:d4:08:26:17:de:
                    81:d8:85:fd:4f:36:bb:06:98:e1:f0:9b:3c:06:72:
                    6a:7b:96:ee:b0:fe:3a:8d:ba:c7:87:26:76:05:ba:
                    c6:5a:07:04:30:e7:24:fa:32:58:3a:f0:37:05:8a:
                    f4:75
                Exponent: 65537 (0x10001)
        X509v3 extensions:
            X509v3 Basic Constraints: 
                CA:FALSE
            X509v3 Subject Key Identifier: 
                37:12:00:3A:16:04:10:BA:F7:15:81:57:CE:B7:9B:6F:27:BF:40:D3
            X509v3 Authority Key Identifier: 
                keyid:E4:44:09:31:AB:03:58:51:EB:60:9D:0E:64:50:C4:76:5C:22:0A:D3
                DirName:/CN=Easy-RSA CA
                serial:60:F4:D2:4B:52:43:8B:6E:9F:83:43:04:E9:06:40:36:6B:5D:A0:C3

            X509v3 Extended Key Usage: 
                TLS Web Client Authentication
            X509v3 Key Usage: 
                Digital Signature
    Signature Algorithm: sha256WithRSAEncryption
         c5:24:49:64:c0:be:81:e9:15:58:cc:f2:c7:16:01:c1:57:13:
         af:e8:87:6c:25:e1:f7:a1:f4:e9:52:de:1b:40:03:9f:35:06:
         14:d4:54:ff:84:9c:f5:e0:84:07:6e:45:b7:2f:8c:32:55:29:
         54:ba:94:6b:a3:9f:3a:11:27:d9:a8:fb:ee:15:e6:70:b0:e0:
         44:29:52:05:ae:20:bf:b2:3a:1c:f7:b0:90:8f:da:46:bd:bd:
         60:ea:a2:ec:db:07:1e:c0:1d:d1:c9:74:52:a3:a5:ff:d4:92:
         94:37:a3:33:8e:0a:a1:43:3a:61:ba:b6:2d:a3:2a:d4:4f:65:
         fe:ed:e9:d5:4e:a8:6a:98:a3:fc:86:39:74:a2:73:5b:91:3e:
         1f:61:1a:ae:66:9c:ea:1c:68:dd:31:c7:e6:dd:3e:05:0f:75:
         d3:95:05:c1:15:28:0a:23:79:bb:d2:d3:a2:aa:89:62:9d:99:
         b8:bc:2e:35:e6:7d:ab:56:c0:64:21:10:14:83:9d:95:7f:8e:
         e7:49:8b:58:43:a1:33:f8:6b:9c:7a:ca:a7:be:97:36:03:89:
         de:fd:b3:7c:cf:29:57:a5:57:04:2c:36:71:a3:21:fd:3c:3d:
         2a:18:c9:e6:6e:f5:9c:47:60:54:ea:71:6d:6a:96:91:66:3e:
         da:71:e1:c7
-----BEGIN CERTIFICATE-----
MIIDbzCCAlegAwIBAgIRAOxd/N+GGXTdLFFEkkIuCNkwDQYJKoZIhvcNAQELBQAw
FjEUMBIGA1UEAwwLRWFzeS1SU0EgQ0EwHhcNMjQwODA3MDAwMjU3WhcNMjYxMTEw
MDAwMjU3WjArMSkwJwYDVQQDDCBlUHd3TmpJa1A1UldaQm95ajRBRHV3RmFlWTVP
VXRtNzCCASIwDQYJKoZIhvcNAQEBBQADggEPADCCAQoCggEBAMu8iwB/j5hx22Uv
iSPq4vQ0B01OtLyk5nTPiuSK3uF7WpDgVq70CSVFXwJQjjCVd8hqnMNMSJFJN3XY
qC6qyxBXPAWX1kLidVA5y1wunbM9kfMt3nV+HUgD3X7ywK3g/2CjxaY99Qlc7DrO
tGvClqaJic/2sLTT/xMHgyEkV2jZlHX3fTYbI+jAwsxJRE2HX/XcFTn+BQCri3qj
wIDc3FmjqPScuaxJ+NtBQZ6aXyP6P/L861bFjXHX4H2+FyOoIZQ+7DPul1MAASNx
d9QIJhfegdiF/U82uwaY4fCbPAZyanuW7rD+Oo26x4cmdgW6xloHBDDnJPoyWDrw
NwWK9HUCAwEAAaOBojCBnzAJBgNVHRMEAjAAMB0GA1UdDgQWBBQ3EgA6FgQQuvcV
gVfOt5tvJ79A0zBRBgNVHSMESjBIgBTkRAkxqwNYUetgnQ5kUMR2XCIK06EapBgw
FjEUMBIGA1UEAwwLRWFzeS1SU0EgQ0GCFGD00ktSQ4tun4NDBOkGQDZrXaDDMBMG
A1UdJQQMMAoGCCsGAQUFBwMCMAsGA1UdDwQEAwIHgDANBgkqhkiG9w0BAQsFAAOC
AQEAxSRJZMC+gekVWMzyxxYBwVcTr+iHbCXh96H06VLeG0ADnzUGFNRU/4Sc9eCE
B25Fty+MMlUpVLqUa6OfOhEn2aj77hXmcLDgRClSBa4gv7I6HPewkI/aRr29YOqi
7NsHHsAd0cl0UqOl/9SSlDejM44KoUM6Ybq2LaMq1E9l/u3p1U6oapij/IY5dKJz
W5E+H2Earmac6hxo3THH5t0+BQ9105UFwRUoCiN5u9LToqqJYp2ZuLwuNeZ9q1bA
ZCEQFIOdlX+O50mLWEOhM/hrnHrKp76XNgOJ3v2zfM8pV6VXBCw2caMh/Tw9KhjJ
5m71nEdgVOpxbWqWkWY+2nHhxw==
-----END CERTIFICATE-----
