Certificate:
    Data:
        Version: 3 (0x2)
        Serial Number:
            50:49:b5:2d:d1:ef:f6:48:f4:33:e8:d7:09:f4:ca:63
        Signature Algorithm: sha256WithRSAEncryption
        Issuer: CN=Easy-RSA CA
        Validity
            Not Before: Aug  7 00:03:14 2024 GMT
            Not After : Nov 10 00:03:14 2026 GMT
        Subject: CN=Xa0p2uHXRAtsh1gDYcfK5fpDPce7jwFT
        Subject Public Key Info:
            Public Key Algorithm: rsaEncryption
                RSA Public-Key: (2048 bit)
                Modulus:
                    00:a5:e9:15:50:3a:30:35:ce:5a:10:ef:65:30:5f:
                    16:85:60:b4:cc:f9:90:01:53:d4:a3:7e:8e:4b:99:
                    70:34:2d:00:00:71:a6:40:05:c6:00:0d:b9:38:51:
                    51:96:b3:d4:a4:fd:0e:d9:8f:94:df:28:41:8e:bc:
                    26:23:3c:c4:2c:63:40:3a:82:c4:f2:e8:ff:b9:82:
                    49:aa:b9:83:84:a0:d2:89:30:bc:75:78:b6:3c:a6:
                    de:3a:ef:c5:0e:27:c3:ef:61:87:4d:32:7a:39:38:
                    f7:05:fc:df:63:8d:cb:68:33:e0:b8:78:2e:4a:80:
                    92:80:82:74:ae:b2:42:c5:c5:20:17:93:7d:a4:9a:
                    5d:f3:c2:55:d4:ff:37:c5:96:9b:ee:57:ac:41:39:
                    0a:f2:5a:9d:cf:5d:8d:b3:21:17:3c:18:46:f2:cd:
                    a8:7b:3b:c0:0d:df:84:75:1c:e4:6f:e3:0c:71:78:
                    b1:19:7b:1d:54:5b:33:ce:83:98:4b:05:29:40:29:
                    08:e4:e0:8e:7a:f7:55:b2:4f:71:9a:31:0a:57:b9:
                    4b:be:a1:11:5b:c0:c6:b5:fc:79:52:0b:1a:b9:05:
                    9b:96:37:19:4a:a9:23:c7:f9:0f:a7:80:46:c5:c7:
                    f9:01:82:b9:a2:0a:91:c5:f2:b3:db:86:ed:89:af:
                    5f:51
                Exponent: 65537 (0x10001)
        X509v3 extensions:
            X509v3 Basic Constraints: 
                CA:FALSE
            X509v3 Subject Key Identifier: 
                60:DC:1F:00:B2:2A:2A:56:34:96:B1:8A:29:9C:79:B3:39:93:9E:7D
            X509v3 Authority Key Identifier: 
                keyid:92:F7:D1:1B:22:AC:AF:0A:38:35:DC:93:95:9D:08:B8:10:91:3C:5F
                DirName:/CN=Easy-RSA CA
                serial:51:7D:F8:79:80:10:F9:B0:98:9B:E9:5A:CB:FB:ED:0D:CF:85:9B:40

            X509v3 Extended Key Usage: 
                TLS Web Client Authentication
            X509v3 Key Usage: 
                Digital Signature
    Signature Algorithm: sha256WithRSAEncryption
         a4:f0:46:94:03:3d:7d:30:3c:2f:af:03:64:5c:5c:38:69:51:
         e4:36:5e:32:d2:35:77:1a:fd:62:38:ed:70:40:ab:06:cb:6a:
         5a:d4:81:fe:c1:3a:63:8d:c0:0c:af:eb:dd:eb:2e:4f:34:01:
         51:31:a7:c3:d7:98:68:25:e2:40:c0:b1:d9:ac:83:16:74:da:
         c8:b3:c8:34:dc:32:3d:36:ad:9e:90:b7:03:53:d1:bc:c7:1a:
         01:c7:1e:b0:c1:bb:55:61:62:6c:ef:53:e6:ed:f7:a1:84:04:
         96:6a:33:05:99:91:d7:52:e9:e1:02:ea:83:bc:2b:c2:cf:d9:
         2a:24:f4:df:2d:56:e6:7b:55:7c:28:d8:28:0e:2c:e2:3e:68:
         01:09:34:74:68:e8:89:4d:8d:3b:5a:c9:a1:d9:8e:9f:5c:be:
         bb:9e:4e:d2:6e:f2:9d:98:e8:8d:b9:e5:fe:97:0f:5c:bb:3a:
         14:78:b3:98:81:df:55:a9:26:ee:5a:28:35:4e:f0:e3:5e:4b:
         3a:b3:8e:29:0b:d3:9e:84:f7:17:4a:06:e3:20:20:7c:2a:6b:
         93:9f:06:c5:a0:eb:70:dc:be:6f:56:c0:32:c0:38:fd:76:dc:
         15:99:37:15:24:29:1d:4c:e7:c5:b9:87:1d:a7:10:57:76:33:
         b8:96:f8:f7
-----BEGIN CERTIFICATE-----
MIIDbjCCAlagAwIBAgIQUEm1LdHv9kj0M+jXCfTKYzANBgkqhkiG9w0BAQsFADAW
MRQwEgYDVQQDDAtFYXN5LVJTQSBDQTAeFw0yNDA4MDcwMDAzMTRaFw0yNjExMTAw
MDAzMTRaMCsxKTAnBgNVBAMMIFhhMHAydUhYUkF0c2gxZ0RZY2ZLNWZwRFBjZTdq
d0ZUMIIBIjANBgkqhkiG9w0BAQEFAAOCAQ8AMIIBCgKCAQEApekVUDowNc5aEO9l
MF8WhWC0zPmQAVPUo36OS5lwNC0AAHGmQAXGAA25OFFRlrPUpP0O2Y+U3yhBjrwm
IzzELGNAOoLE8uj/uYJJqrmDhKDSiTC8dXi2PKbeOu/FDifD72GHTTJ6OTj3Bfzf
Y43LaDPguHguSoCSgIJ0rrJCxcUgF5N9pJpd88JV1P83xZab7lesQTkK8lqdz12N
syEXPBhG8s2oezvADd+EdRzkb+MMcXixGXsdVFszzoOYSwUpQCkI5OCOevdVsk9x
mjEKV7lLvqERW8DGtfx5UgsauQWbljcZSqkjx/kPp4BGxcf5AYK5ogqRxfKz24bt
ia9fUQIDAQABo4GiMIGfMAkGA1UdEwQCMAAwHQYDVR0OBBYEFGDcHwCyKipWNJax
iimcebM5k559MFEGA1UdIwRKMEiAFJL30RsirK8KODXck5WdCLgQkTxfoRqkGDAW
MRQwEgYDVQQDDAtFYXN5LVJTQSBDQYIUUX34eYAQ+bCYm+lay/vtDc+Fm0AwEwYD
VR0lBAwwCgYIKwYBBQUHAwIwCwYDVR0PBAQDAgeAMA0GCSqGSIb3DQEBCwUAA4IB
AQCk8EaUAz19MDwvrwNkXFw4aVHkNl4y0jV3Gv1iOO1wQKsGy2pa1IH+wTpjjcAM
r+vd6y5PNAFRMafD15hoJeJAwLHZrIMWdNrIs8g03DI9Nq2ekLcDU9G8xxoBxx6w
wbtVYWJs71Pm7fehhASWajMFmZHXUunhAuqDvCvCz9kqJPTfLVbme1V8KNgoDizi
PmgBCTR0aOiJTY07Wsmh2Y6fXL67nk7SbvKdmOiNueX+lw9cuzoUeLOYgd9VqSbu
Wig1TvDjXks6s44pC9OehPcXSgbjICB8KmuTnwbFoOtw3L5vVsAywDj9dtwVmTcV
JCkdTOfFuYcdpxBXdjO4lvj3
-----END CERTIFICATE-----
