Certificate:
    Data:
        Version: 3 (0x2)
        Serial Number:
            f1:4d:88:93:63:f5:6b:f4:46:ab:19:cb:84:3e:a9:17
        Signature Algorithm: sha256WithRSAEncryption
        Issuer: CN=Easy-RSA CA
        Validity
            Not Before: Aug  7 00:02:48 2024 GMT
            Not After : Nov 10 00:02:48 2026 GMT
        Subject: CN=z35UU5Jj7RHlX6C4m4W9bzKkNAjnsUFN
        Subject Public Key Info:
            Public Key Algorithm: rsaEncryption
                RSA Public-Key: (2048 bit)
                Modulus:
                    00:cb:66:72:59:c7:4d:f8:6e:c8:33:f4:f3:a9:67:
                    3d:ac:fd:3f:29:7e:a1:26:22:46:21:dd:f9:ee:00:
                    16:1f:2a:2c:ed:38:89:2d:4c:69:7d:9b:c6:ba:44:
                    a5:79:8e:f7:2b:43:bf:58:a1:a1:c2:50:86:33:d7:
                    42:d0:97:be:c7:b2:13:e8:08:ed:06:3a:93:ae:2d:
                    f3:82:9b:8e:7b:80:13:f9:81:3f:83:03:19:dc:b8:
                    a9:8d:ae:87:24:6b:65:03:86:6a:e1:50:a5:09:0b:
                    1d:7a:89:b5:db:26:8f:da:a1:85:a5:55:50:9b:86:
                    81:99:93:d4:1a:b2:d8:ec:b0:97:27:88:45:cf:6d:
                    00:d6:aa:b0:f9:d3:e1:d5:da:d6:16:52:fa:48:85:
                    c9:b8:b6:e0:bf:d5:3b:cf:6c:9e:76:c1:df:d5:30:
                    98:0c:43:4a:77:d0:17:b3:46:e8:0b:3a:e4:c8:bd:
                    07:37:02:d6:46:b0:1d:c5:f8:95:ec:d4:94:17:a4:
                    63:66:cf:b2:4d:c4:c4:eb:2c:19:bf:78:b2:ab:3b:
                    1f:27:f6:9f:22:a9:be:cc:1d:5d:ce:65:0c:99:af:
                    6c:46:9e:74:89:7d:02:1f:61:0a:0a:db:e9:b4:2c:
                    ed:f1:ff:9e:8e:10:7f:d1:bc:81:2b:6c:2a:18:f3:
                    7f:79
                Exponent: 65537 (0x10001)
        X509v3 extensions:
            X509v3 Basic Constraints: 
                CA:FALSE
            X509v3 Subject Key Identifier: 
                C7:72:7D:82:A3:25:0E:62:AF:72:DB:36:8C:5B:CF:DA:6D:30:75:3F
            X509v3 Authority Key Identifier: 
                keyid:88:83:0A:91:D3:16:78:31:6B:95:03:EF:B2:AA:AB:08:83:E7:1F:55
                DirName:/CN=Easy-RSA CA
                serial:4A:95:F6:74:8E:18:5D:88:15:A5:82:FD:FE:58:36:FF:C6:47:FC:8E

            X509v3 Extended Key Usage: 
                TLS Web Client Authentication
            X509v3 Key Usage: 
                Digital Signature
    Signature Algorithm: sha256WithRSAEncryption
         09:92:32:74:d7:f1:11:77:73:7d:f1:3b:ca:19:7f:49:f1:19:
         7a:0e:a1:fb:64:24:9f:50:2b:1b:f2:f1:a5:f1:da:3f:65:4d:
         1b:8e:91:02:a7:41:0c:e7:21:0d:42:63:1b:a6:77:00:92:09:
         a7:3a:a2:35:b7:1c:47:6c:6a:58:68:4b:2d:23:ca:4b:ef:a2:
         e9:6a:1b:83:cc:f8:0e:03:2a:f3:28:91:75:fe:9c:30:53:26:
         74:95:a4:d5:a7:8f:3f:cc:28:b8:eb:47:2f:54:77:65:ea:b9:
         b9:22:cf:18:06:50:bb:a7:07:e2:98:ec:52:ef:d1:8c:75:04:
         da:3c:a4:70:af:fd:41:cd:4a:4a:27:2b:38:2e:96:5e:a6:c3:
         06:e1:e5:64:cb:7e:eb:0b:1e:5c:fe:2b:19:d3:27:2d:62:84:
         e9:05:5b:d7:54:d9:bf:d9:08:2b:10:05:a2:37:ca:c1:77:19:
         22:1f:1f:49:c7:38:e3:2d:13:ea:61:36:1b:a8:17:25:80:32:
         c9:51:1f:87:b7:14:e9:a7:fd:eb:fc:32:01:5b:85:42:1f:4d:
         c0:e7:34:f0:cf:96:ac:ec:50:c1:12:32:24:09:f4:42:35:ae:
         24:9d:51:d2:f0:65:38:e4:44:f9:b3:22:da:ee:ce:22:81:3f:
         10:dd:03:e9
-----BEGIN CERTIFICATE-----
MIIDbzCCAlegAwIBAgIRAPFNiJNj9Wv0RqsZy4Q+qRcwDQYJKoZIhvcNAQELBQAw
FjEUMBIGA1UEAwwLRWFzeS1SU0EgQ0EwHhcNMjQwODA3MDAwMjQ4WhcNMjYxMTEw
MDAwMjQ4WjArMSkwJwYDVQQDDCB6MzVVVTVKajdSSGxYNkM0bTRXOWJ6S2tOQWpu
c1VGTjCCASIwDQYJKoZIhvcNAQEBBQADggEPADCCAQoCggEBAMtmclnHTfhuyDP0
86lnPaz9Pyl+oSYiRiHd+e4AFh8qLO04iS1MaX2bxrpEpXmO9ytDv1ihocJQhjPX
QtCXvseyE+gI7QY6k64t84KbjnuAE/mBP4MDGdy4qY2uhyRrZQOGauFQpQkLHXqJ
tdsmj9qhhaVVUJuGgZmT1Bqy2OywlyeIRc9tANaqsPnT4dXa1hZS+kiFybi24L/V
O89snnbB39UwmAxDSnfQF7NG6As65Mi9BzcC1kawHcX4lezUlBekY2bPsk3ExOss
Gb94sqs7Hyf2nyKpvswdXc5lDJmvbEaedIl9Ah9hCgrb6bQs7fH/no4Qf9G8gSts
Khjzf3kCAwEAAaOBojCBnzAJBgNVHRMEAjAAMB0GA1UdDgQWBBTHcn2CoyUOYq9y
2zaMW8/abTB1PzBRBgNVHSMESjBIgBSIgwqR0xZ4MWuVA++yqqsIg+cfVaEapBgw
FjEUMBIGA1UEAwwLRWFzeS1SU0EgQ0GCFEqV9nSOGF2IFaWC/f5YNv/GR/yOMBMG
A1UdJQQMMAoGCCsGAQUFBwMCMAsGA1UdDwQEAwIHgDANBgkqhkiG9w0BAQsFAAOC
AQEACZIydNfxEXdzffE7yhl/SfEZeg6h+2Qkn1ArG/LxpfHaP2VNG46RAqdBDOch
DUJjG6Z3AJIJpzqiNbccR2xqWGhLLSPKS++i6Wobg8z4DgMq8yiRdf6cMFMmdJWk
1aePP8wouOtHL1R3Zeq5uSLPGAZQu6cH4pjsUu/RjHUE2jykcK/9Qc1KSicrOC6W
XqbDBuHlZMt+6wseXP4rGdMnLWKE6QVb11TZv9kIKxAFojfKwXcZIh8fScc44y0T
6mE2G6gXJYAyyVEfh7cU6af96/wyAVuFQh9NwOc08M+WrOxQwRIyJAn0QjWuJJ1R
0vBlOORE+bMi2u7OIoE/EN0D6Q==
-----END CERTIFICATE-----
