Certificate:
    Data:
        Version: 3 (0x2)
        Serial Number:
            58:c0:d3:fc:ba:14:15:2c:b3:58:0b:d2:79:83:82:fe
        Signature Algorithm: sha256WithRSAEncryption
        Issuer: CN=Easy-RSA CA
        Validity
            Not Before: Aug  7 00:03:05 2024 GMT
            Not After : Nov 10 00:03:05 2026 GMT
        Subject: CN=MyReq
        Subject Public Key Info:
            Public Key Algorithm: rsaEncryption
                RSA Public-Key: (2048 bit)
                Modulus:
                    00:d0:a2:4f:fe:3a:4a:06:c7:0d:fc:01:3c:70:84:
                    a2:8f:95:9c:38:e8:37:3b:19:3d:de:a7:42:ec:17:
                    8c:7a:60:c6:ec:3a:1c:3d:d8:06:a1:4e:8f:7d:8f:
                    5e:12:2b:1a:09:28:e6:6d:23:45:99:47:b7:4f:29:
                    30:d9:e2:6a:8a:1e:38:e2:43:56:29:8f:67:85:92:
                    9a:95:91:a5:10:6b:6f:83:cc:60:30:cd:8e:ed:27:
                    fe:b4:6a:e0:e7:6d:89:1c:b4:08:0b:56:7c:8b:42:
                    97:7e:0b:8f:07:26:75:2e:0c:60:03:4c:94:18:8f:
                    40:e6:47:0e:cf:7e:c1:4b:43:c0:74:32:4c:47:63:
                    97:15:d1:29:73:fa:32:fb:e7:35:76:9b:81:48:c6:
                    5b:b9:44:1a:12:f2:29:49:ff:10:ef:51:d0:88:fe:
                    60:8f:b1:9f:7b:ef:f6:49:8a:47:22:e8:d0:be:81:
                    76:4c:a0:f3:b5:b3:5a:fd:01:60:58:62:3c:a1:c8:
                    e7:d5:3a:9c:0c:b1:ec:0c:9d:6c:f2:17:6a:6a:05:
                    a1:20:1e:d0:f2:bf:86:16:ad:10:0c:65:eb:7f:10:
                    28:2d:1d:c5:03:3e:58:f8:5a:d2:6f:9e:82:bd:1c:
                    f9:47:a0:38:56:bb:11:5e:30:74:f9:de:db:73:f5:
                    77:65
                Exponent: 65537 (0x10001)
        X509v3 extensions:
            X509v3 Basic Constraints: 
                CA:FALSE
            X509v3 Subject Key Identifier: 
                78:3E:58:1A:5C:A0:E6:54:9B:B4:6E:EE:41:8D:10:B6:A6:B0:6F:FC
            X509v3 Authority Key Identifier: 
                keyid:35:A6:D9:61:81:97:1E:D1:EC:78:64:F2:B8:FD:10:48:E5:EA:F1:B5
                DirName:/CN=Easy-RSA CA
                serial:05:7B:90:41:B2:B7:61:33:90:02:5D:C8:03:89:32:E7:CF:B9:BC:01

            X509v3 Extended Key Usage: 
                TLS Web Server Authentication
            X509v3 Key Usage: 
                Digital Signature, Key Encipherment
            X509v3 Subject Alternative Name: 
                DNS:MyReq
    Signature Algorithm: sha256WithRSAEncryption
         86:c9:d7:6c:50:67:2c:fa:09:db:a4:8f:93:c5:ef:0b:cb:48:
         8d:0e:16:37:d1:70:73:b5:e6:cc:54:79:fa:4e:af:13:b6:d8:
         bd:d2:fe:56:d4:7f:15:b4:a7:19:c2:2d:43:62:42:02:ce:c4:
         c8:5d:4c:93:4d:4c:6b:69:81:fc:37:9c:ee:81:87:fc:27:83:
         e1:1a:99:be:57:3b:b3:aa:b6:37:3c:88:64:88:b6:3a:10:57:
         38:27:8c:51:1e:06:c7:99:4a:19:71:95:0c:96:c3:da:ac:65:
         9e:b3:a4:aa:7c:9a:fa:3d:ec:ab:35:3c:02:70:d6:72:d9:88:
         67:b4:5f:cc:bf:f6:bc:ed:3a:1c:a5:09:b1:a8:c3:db:08:20:
         56:78:17:14:bf:9a:29:40:91:bf:6c:23:35:1b:a7:68:54:6d:
         78:29:dd:3b:51:a5:54:5a:b8:b2:39:44:08:49:a2:42:fb:da:
         92:8c:32:6f:49:b6:26:e9:9b:19:8e:ed:63:86:a7:06:d6:dc:
         1e:eb:8f:2a:49:c7:26:59:5b:c5:04:50:fd:6e:b3:9f:ca:0f:
         c0:71:20:68:14:02:20:2f:9b:c8:dd:47:24:9c:1d:ac:25:54:
         ea:41:e6:f8:50:e8:c5:fc:f3:13:83:99:31:2a:19:8f:40:69:
         11:e7:41:a1
-----BEGIN CERTIFICATE-----
MIIDZTCCAk2gAwIBAgIQWMDT/LoUFSyzWAvSeYOC/jANBgkqhkiG9w0BAQsFADAW
MRQwEgYDVQQDDAtFYXN5LVJTQSBDQTAeFw0yNDA4MDcwMDAzMDVaFw0yNjExMTAw
MDAzMDVaMBAxDjAMBgNVBAMMBU15UmVxMIIBIjANBgkqhkiG9w0BAQEFAAOCAQ8A
MIIBCgKCAQEA0KJP/jpKBscN/AE8cISij5WcOOg3Oxk93qdC7BeMemDG7DocPdgG
oU6PfY9eEisaCSjmbSNFmUe3Tykw2eJqih444kNWKY9nhZKalZGlEGtvg8xgMM2O
7Sf+tGrg522JHLQIC1Z8i0KXfguPByZ1LgxgA0yUGI9A5kcOz37BS0PAdDJMR2OX
FdEpc/oy++c1dpuBSMZbuUQaEvIpSf8Q71HQiP5gj7Gfe+/2SYpHIujQvoF2TKDz
tbNa/QFgWGI8ocjn1TqcDLHsDJ1s8hdqagWhIB7Q8r+GFq0QDGXrfxAoLR3FAz5Y
+FrSb56CvRz5R6A4VrsRXjB0+d7bc/V3ZQIDAQABo4G0MIGxMAkGA1UdEwQCMAAw
HQYDVR0OBBYEFHg+WBpcoOZUm7Ru7kGNELamsG/8MFEGA1UdIwRKMEiAFDWm2WGB
lx7R7Hhk8rj9EEjl6vG1oRqkGDAWMRQwEgYDVQQDDAtFYXN5LVJTQSBDQYIUBXuQ
QbK3YTOQAl3IA4ky58+5vAEwEwYDVR0lBAwwCgYIKwYBBQUHAwEwCwYDVR0PBAQD
AgWgMBAGA1UdEQQJMAeCBU15UmVxMA0GCSqGSIb3DQEBCwUAA4IBAQCGyddsUGcs
+gnbpI+Txe8Ly0iNDhY30XBztebMVHn6Tq8Ttti90v5W1H8VtKcZwi1DYkICzsTI
XUyTTUxraYH8N5zugYf8J4PhGpm+VzuzqrY3PIhkiLY6EFc4J4xRHgbHmUoZcZUM
lsParGWes6SqfJr6PeyrNTwCcNZy2YhntF/Mv/a87TocpQmxqMPbCCBWeBcUv5op
QJG/bCM1G6doVG14Kd07UaVUWriyOUQISaJC+9qSjDJvSbYm6ZsZju1jhqcG1twe
648qSccmWVvFBFD9brOfyg/AcSBoFAIgL5vI3UcknB2sJVTqQeb4UOjF/PMTg5kx
KhmPQGkR50Gh
-----END CERTIFICATE-----
