Certificate:
    Data:
        Version: 3 (0x2)
        Serial Number:
            cb:94:55:e9:ed:02:dd:b1:7c:ef:f5:45:df:2f:fa:95
        Signature Algorithm: sha256WithRSAEncryption
        Issuer: CN=Easy-RSA CA
        Validity
            Not Before: Aug  7 00:02:48 2024 GMT
            Not After : Nov 10 00:02:48 2026 GMT
        Subject: CN=MyReq
        Subject Public Key Info:
            Public Key Algorithm: rsaEncryption
                RSA Public-Key: (2048 bit)
                Modulus:
                    00:e3:cb:9b:ed:9d:73:90:b0:a1:d9:43:31:13:84:
                    97:44:bf:f9:51:48:a0:c5:31:d4:b0:5b:1b:0c:c9:
                    50:46:bb:1d:e3:3b:80:ca:c8:a0:c7:cf:6c:c7:68:
                    cf:91:55:56:5c:52:90:a5:ea:ba:9e:15:0b:32:fb:
                    ff:b8:7c:3d:8b:b6:2e:ae:6f:a7:d9:34:b7:d1:de:
                    17:62:20:ea:69:91:bf:dc:65:93:d6:38:03:ae:56:
                    90:b4:65:0b:7f:43:1e:c8:7b:00:f5:f6:71:73:81:
                    95:c4:3c:55:89:7e:84:cf:e3:05:9b:85:1a:f7:ec:
                    e3:fd:c8:79:b5:d9:b0:a2:32:17:80:50:8a:62:26:
                    0f:0b:3e:68:63:8f:c6:70:8c:cf:2f:8d:1b:88:db:
                    25:96:cf:02:b3:71:16:cd:60:98:48:0c:0d:7c:0f:
                    f8:8a:a1:6e:4b:f7:68:26:c1:63:24:7f:3a:ab:50:
                    d4:51:51:77:55:c4:30:35:52:36:6f:6d:d7:df:6d:
                    4b:47:d0:89:ed:23:39:84:fc:1c:39:3c:69:b8:51:
                    69:38:91:92:3e:98:50:71:4c:8f:2b:07:e3:25:9c:
                    24:50:cd:96:8c:8f:70:91:90:6a:0d:90:34:65:d2:
                    c3:e6:8a:ab:44:f9:2c:dd:8d:67:31:16:42:37:05:
                    c1:7f
                Exponent: 65537 (0x10001)
        X509v3 extensions:
            X509v3 Basic Constraints: 
                CA:FALSE
            X509v3 Subject Key Identifier: 
                56:23:B1:22:35:89:82:05:EB:8F:1E:9A:81:3D:46:19:73:66:CC:42
            X509v3 Authority Key Identifier: 
                keyid:88:83:0A:91:D3:16:78:31:6B:95:03:EF:B2:AA:AB:08:83:E7:1F:55
                DirName:/CN=Easy-RSA CA
                serial:4A:95:F6:74:8E:18:5D:88:15:A5:82:FD:FE:58:36:FF:C6:47:FC:8E

            X509v3 Extended Key Usage: 
                TLS Web Server Authentication
            X509v3 Key Usage: 
                Digital Signature, Key Encipherment
            X509v3 Subject Alternative Name: 
                DNS:MyReq
    Signature Algorithm: sha256WithRSAEncryption
         87:29:fd:2c:53:1f:22:5b:3a:bc:e8:80:35:0e:5f:6c:73:1d:
         5e:5b:c2:54:87:d4:5e:fd:7a:de:74:47:a4:1d:bf:b0:ac:99:
         0b:c2:96:24:47:e9:fc:60:09:6a:f7:39:5f:a1:37:a5:05:99:
         96:95:94:a4:49:9c:ca:9a:14:fa:3a:4a:7d:32:bb:6f:18:3b:
         37:05:c9:9e:06:7a:37:37:ae:5d:77:b0:4a:65:ba:40:50:7c:
         07:cb:bb:f5:86:f6:d8:d1:f5:bc:31:80:5d:72:70:32:4e:69:
         dc:2f:d4:8b:ef:56:19:1d:0d:24:78:93:91:c9:73:5f:77:cb:
         00:ea:4f:fd:4f:75:15:be:c2:a9:cc:14:b2:7c:c8:1c:ee:23:
         c7:cf:b4:8a:cf:af:2d:d2:08:6d:bf:73:28:7e:5a:f1:5c:92:
         cc:7b:b0:4b:95:39:a4:df:72:e6:6f:9a:8a:b7:5e:76:a2:08:
         e0:e0:da:62:4a:e4:24:4a:06:a3:28:06:56:95:e7:d7:eb:2d:
         5f:5b:75:11:b2:53:6b:09:8a:89:bf:4c:b6:e3:82:46:85:f6:
         23:91:a8:e4:0b:05:45:8a:ba:38:72:82:4e:bf:6f:06:e5:ca:
         ab:d0:fa:41:7b:5b:85:80:cc:4c:e3:c6:a3:49:a2:2c:06:b6:
         8b:e8:50:e3
-----BEGIN CERTIFICATE-----
MIIDZjCCAk6gAwIBAgIRAMuUVentAt2xfO/1Rd8v+pUwDQYJKoZIhvcNAQELBQAw
FjEUMBIGA1UEAwwLRWFzeS1SU0EgQ0EwHhcNMjQwODA3MDAwMjQ4WhcNMjYxMTEw
MDAwMjQ4WjAQMQ4wDAYDVQQDDAVNeVJlcTCCASIwDQYJKoZIhvcNAQEBBQADggEP
ADCCAQoCggEBAOPLm+2dc5CwodlDMROEl0S/+VFIoMUx1LBbGwzJUEa7HeM7gMrI
oMfPbMdoz5FVVlxSkKXqup4VCzL7/7h8PYu2Lq5vp9k0t9HeF2Ig6mmRv9xlk9Y4
A65WkLRlC39DHsh7APX2cXOBlcQ8VYl+hM/jBZuFGvfs4/3IebXZsKIyF4BQimIm
Dws+aGOPxnCMzy+NG4jbJZbPArNxFs1gmEgMDXwP+Iqhbkv3aCbBYyR/OqtQ1FFR
d1XEMDVSNm9t199tS0fQie0jOYT8HDk8abhRaTiRkj6YUHFMjysH4yWcJFDNloyP
cJGQag2QNGXSw+aKq0T5LN2NZzEWQjcFwX8CAwEAAaOBtDCBsTAJBgNVHRMEAjAA
MB0GA1UdDgQWBBRWI7EiNYmCBeuPHpqBPUYZc2bMQjBRBgNVHSMESjBIgBSIgwqR
0xZ4MWuVA++yqqsIg+cfVaEapBgwFjEUMBIGA1UEAwwLRWFzeS1SU0EgQ0GCFEqV
9nSOGF2IFaWC/f5YNv/GR/yOMBMGA1UdJQQMMAoGCCsGAQUFBwMBMAsGA1UdDwQE
AwIFoDAQBgNVHREECTAHggVNeVJlcTANBgkqhkiG9w0BAQsFAAOCAQEAhyn9LFMf
Ils6vOiANQ5fbHMdXlvCVIfUXv163nRHpB2/sKyZC8KWJEfp/GAJavc5X6E3pQWZ
lpWUpEmcypoU+jpKfTK7bxg7NwXJngZ6NzeuXXewSmW6QFB8B8u79Yb22NH1vDGA
XXJwMk5p3C/Ui+9WGR0NJHiTkclzX3fLAOpP/U91Fb7CqcwUsnzIHO4jx8+0is+v
LdIIbb9zKH5a8VySzHuwS5U5pN9y5m+airdedqII4ODaYkrkJEoGoygGVpXn1+st
X1t1EbJTawmKib9MtuOCRoX2I5Go5AsFRYq6OHKCTr9vBuXKq9D6QXtbhYDMTOPG
o0miLAa2i+hQ4w==
-----END CERTIFICATE-----
