Certificate:
    Data:
        Version: 3 (0x2)
        Serial Number:
            e5:6d:53:cb:98:f8:8b:33:c1:20:27:27:1a:c2:c5:b0
        Signature Algorithm: sha256WithRSAEncryption
        Issuer: CN=Easy-RSA CA
        Validity
            Not Before: Aug  7 00:02:57 2024 GMT
            Not After : Nov 10 00:02:57 2026 GMT
        Subject: CN=MyReq
        Subject Public Key Info:
            Public Key Algorithm: rsaEncryption
                RSA Public-Key: (2048 bit)
                Modulus:
                    00:ab:43:3f:42:d4:21:f0:31:32:8f:3f:cb:51:3f:
                    38:15:9c:7f:86:da:88:1a:ad:d1:f8:cc:47:01:2d:
                    65:af:c2:93:ad:a5:58:65:53:4f:a2:bf:f6:7a:fb:
                    9c:1d:a0:b4:4f:5b:5e:b9:c0:2c:c4:48:a6:4e:78:
                    57:e0:81:00:b7:4e:d1:d4:63:77:3f:a0:bd:4a:32:
                    19:9f:39:68:9b:fa:09:82:c4:bc:e9:26:5a:e1:66:
                    a6:d1:3a:a7:2a:f6:0e:d4:0b:26:bc:7e:b6:5e:bc:
                    e4:7f:e9:70:6b:ef:8f:1c:70:79:48:74:6a:2d:c4:
                    3c:03:cc:08:36:e7:74:e4:17:e8:1e:08:7b:5c:68:
                    c8:ac:30:8c:e9:bd:76:4c:d6:6f:b9:4d:48:0c:73:
                    92:04:73:1e:ad:91:f4:79:a9:0d:48:d4:7e:9b:fe:
                    c7:6b:6f:49:0b:f2:61:10:a3:a0:30:4d:16:65:64:
                    c9:14:f8:ba:fd:39:e2:99:28:4d:5d:79:bb:8b:ba:
                    bf:48:a9:a6:d7:ac:24:1d:c0:b4:1b:5e:38:c6:ef:
                    7b:a0:fa:4c:14:7f:1f:c9:5c:89:31:31:e4:c1:71:
                    1f:dc:09:f3:88:fd:a0:16:96:40:9e:4f:1b:d2:1b:
                    1b:c0:09:57:ca:11:0d:f1:52:7b:f1:90:8c:90:05:
                    5c:0d
                Exponent: 65537 (0x10001)
        X509v3 extensions:
            X509v3 Basic Constraints: 
                CA:FALSE
            X509v3 Subject Key Identifier: 
                9C:09:38:0D:47:97:F8:AC:4B:22:73:C5:D4:89:2F:2F:CC:2C:05:6E
            X509v3 Authority Key Identifier: 
                keyid:E4:44:09:31:AB:03:58:51:EB:60:9D:0E:64:50:C4:76:5C:22:0A:D3
                DirName:/CN=Easy-RSA CA
                serial:60:F4:D2:4B:52:43:8B:6E:9F:83:43:04:E9:06:40:36:6B:5D:A0:C3

            X509v3 Extended Key Usage: 
                TLS Web Server Authentication
            X509v3 Key Usage: 
                Digital Signature, Key Encipherment
            X509v3 Subject Alternative Name: 
                DNS:MyReq
    Signature Algorithm: sha256WithRSAEncryption
         74:74:82:f5:e4:40:14:45:46:3d:65:c3:14:ba:74:5f:8f:b6:
         ce:cd:fd:ac:ff:e0:80:a2:51:f1:b6:76:20:f8:8b:33:71:63:
         1d:77:56:d5:a2:d0:ee:01:53:a9:d6:b1:8a:94:db:52:a7:fb:
         8e:6f:7c:99:67:2b:7b:98:78:a2:6e:6b:62:24:8f:30:42:a8:
         36:e3:44:bc:76:1f:17:b9:05:53:3b:67:75:99:66:04:fc:0b:
         86:73:c4:d7:fe:39:31:5b:cf:45:4a:6e:26:82:b4:b0:c0:80:
         f9:09:84:35:eb:41:ef:a5:5e:e9:53:11:e4:b6:33:a6:30:7d:
         ab:86:9f:ab:db:c6:1e:57:f4:c7:4a:65:2a:29:47:24:05:d6:
         c7:94:20:70:65:51:f9:09:0b:65:54:26:26:ba:5f:f0:c0:a5:
         83:67:b8:21:90:ed:7b:95:28:3a:b3:1a:ab:22:06:6b:30:b8:
         eb:9a:0d:ef:4b:f8:17:9d:fe:c6:64:69:e3:e7:47:e8:fa:c8:
         f9:f0:ac:8c:d9:ea:dc:65:08:51:15:07:91:03:ba:a1:5d:33:
         bf:45:67:31:54:c0:9d:4e:ca:30:46:69:25:c0:af:1a:bf:a5:
         89:0f:94:6a:72:f1:6b:b7:d9:e6:89:84:12:aa:0b:5c:d0:38:
         48:99:c0:a9
-----BEGIN CERTIFICATE-----
MIIDZjCCAk6gAwIBAgIRAOVtU8uY+IszwSAnJxrCxbAwDQYJKoZIhvcNAQELBQAw
FjEUMBIGA1UEAwwLRWFzeS1SU0EgQ0EwHhcNMjQwODA3MDAwMjU3WhcNMjYxMTEw
MDAwMjU3WjAQMQ4wDAYDVQQDDAVNeVJlcTCCASIwDQYJKoZIhvcNAQEBBQADggEP
ADCCAQoCggEBAKtDP0LUIfAxMo8/y1E/OBWcf4baiBqt0fjMRwEtZa/Ck62lWGVT
T6K/9nr7nB2gtE9bXrnALMRIpk54V+CBALdO0dRjdz+gvUoyGZ85aJv6CYLEvOkm
WuFmptE6pyr2DtQLJrx+tl685H/pcGvvjxxweUh0ai3EPAPMCDbndOQX6B4Ie1xo
yKwwjOm9dkzWb7lNSAxzkgRzHq2R9HmpDUjUfpv+x2tvSQvyYRCjoDBNFmVkyRT4
uv054pkoTV15u4u6v0ipptesJB3AtBteOMbve6D6TBR/H8lciTEx5MFxH9wJ84j9
oBaWQJ5PG9IbG8AJV8oRDfFSe/GQjJAFXA0CAwEAAaOBtDCBsTAJBgNVHRMEAjAA
MB0GA1UdDgQWBBScCTgNR5f4rEsic8XUiS8vzCwFbjBRBgNVHSMESjBIgBTkRAkx
qwNYUetgnQ5kUMR2XCIK06EapBgwFjEUMBIGA1UEAwwLRWFzeS1SU0EgQ0GCFGD0
0ktSQ4tun4NDBOkGQDZrXaDDMBMGA1UdJQQMMAoGCCsGAQUFBwMBMAsGA1UdDwQE
AwIFoDAQBgNVHREECTAHggVNeVJlcTANBgkqhkiG9w0BAQsFAAOCAQEAdHSC9eRA
FEVGPWXDFLp0X4+2zs39rP/ggKJR8bZ2IPiLM3FjHXdW1aLQ7gFTqdaxipTbUqf7
jm98mWcre5h4om5rYiSPMEKoNuNEvHYfF7kFUztndZlmBPwLhnPE1/45MVvPRUpu
JoK0sMCA+QmENetB76Ve6VMR5LYzpjB9q4afq9vGHlf0x0plKilHJAXWx5QgcGVR
+QkLZVQmJrpf8MClg2e4IZDte5UoOrMaqyIGazC465oN70v4F53+xmRp4+dH6PrI
+fCsjNnq3GUIURUHkQO6oV0zv0VnMVTAnU7KMEZpJcCvGr+liQ+UanLxa7fZ5omE
EqoLXNA4SJnAqQ==
-----END CERTIFICATE-----
